target datalayout = "e-m:e-p270:32:32-p271:32:32-p272:64:64-i64:64-i128:128-f80:128-n8:16:32:64-S128"
target triple = "x86_64-pc-linux-gnu"

%struct.channel_layout_name = type { ptr, %struct.AVChannelLayout }
%struct.AVChannelLayout = type { i32, i32, %union.anon, ptr }
%union.anon = type { i64 }

; Function Attrs: nounwind uwtable
define void @av_channel_layout_default(ptr noundef %0, i32 noundef %1) #0 {
  %3 = alloca ptr, align 8
  %4 = alloca i32, align 4
  %5 = alloca i32, align 4
  %6 = alloca i32, align 4
  store ptr %0, ptr %3, align 8, !tbaa !23
  store i32 %1, ptr %4, align 4, !tbaa !9
  call void @llvm.lifetime.start.p0(i64 4, ptr %5) #11
  store i32 0, ptr %5, align 4, !tbaa !9
  br label %7

7:                                                ; preds = %27, %2
  %8 = load i32, ptr %5, align 4, !tbaa !9
  %9 = sext i32 %8 to i64
  %10 = icmp ult i64 %9, 40
  br i1 %10, label %11, label %30

11:                                               ; preds = %7
  %12 = load i32, ptr %4, align 4, !tbaa !9
  %13 = load i32, ptr %5, align 4, !tbaa !9
  %14 = sext i32 %13 to i64
  %15 = getelementptr inbounds [40 x %struct.channel_layout_name], ptr @channel_layout_map, i64 0, i64 %14
  %16 = getelementptr inbounds nuw %struct.channel_layout_name, ptr %15, i32 0, i32 1
  %17 = getelementptr inbounds nuw %struct.AVChannelLayout, ptr %16, i32 0, i32 1
  %18 = load i32, ptr %17, align 4, !tbaa !42
  %19 = icmp eq i32 %12, %18
  br i1 %19, label %20, label %26

20:                                               ; preds = %11
  %21 = load ptr, ptr %3, align 8, !tbaa !23
  %22 = load i32, ptr %5, align 4, !tbaa !9
  %23 = sext i32 %22 to i64
  %24 = getelementptr inbounds [40 x %struct.channel_layout_name], ptr @channel_layout_map, i64 0, i64 %23
  %25 = getelementptr inbounds nuw %struct.channel_layout_name, ptr %24, i32 0, i32 1
  call void @llvm.memcpy.p0.p0.i64(ptr align 8 %21, ptr align 8 %25, i64 24, i1 false), !tbaa.struct !35
  store i32 1, ptr %6, align 4
  br label %36

26:                                               ; preds = %11
  br label %27

27:                                               ; preds = %26
  %28 = load i32, ptr %5, align 4, !tbaa !9
  %29 = add nsw i32 %28, 1
  store i32 %29, ptr %5, align 4, !tbaa !9
  br label %7, !llvm.loop !43

30:                                               ; preds = %7
  %31 = load ptr, ptr %3, align 8, !tbaa !23
  %32 = getelementptr inbounds nuw %struct.AVChannelLayout, ptr %31, i32 0, i32 0
  store i32 0, ptr %32, align 8, !tbaa !30
  %33 = load i32, ptr %4, align 4, !tbaa !9
  %34 = load ptr, ptr %3, align 8, !tbaa !23
  %35 = getelementptr inbounds nuw %struct.AVChannelLayout, ptr %34, i32 0, i32 1
  store i32 %33, ptr %35, align 4, !tbaa !32
  store i32 0, ptr %6, align 4
  br label %36

36:                                               ; preds = %30, %20
  call void @llvm.lifetime.end.p0(i64 4, ptr %5) #11
  %37 = load i32, ptr %6, align 4
  switch i32 %37, label %39 [
    i32 0, label %38
    i32 1, label %38
  ]

38:                                               ; preds = %36, %36
  ret void

39:                                               ; preds = %36
  unreachable
}