; Function Attrs: nofree norecurse nosync nounwind memory(argmem: readwrite) uwtable
define void @av_channel_layout_default(ptr noundef writeonly captures(none) %0, i32 noundef %1) local_unnamed_addr #11 {
  br label %4

3:                                                ; preds = %4
  %indvars.iv.next = add nuw nsw i64 %indvars.iv, 1
  %exitcond.not = icmp eq i64 %indvars.iv.next, 40
  br i1 %exitcond.not, label %10, label %4, !llvm.loop !35

4:                                                ; preds = %2, %3
  %indvars.iv = phi i64 [ 0, %2 ], [ %indvars.iv.next, %3 ]
  %5 = getelementptr inbounds nuw [40 x %struct.channel_layout_name], ptr @channel_layout_map, i64 0, i64 %indvars.iv, i32 1
  %6 = getelementptr inbounds nuw i8, ptr %5, i64 4
  %7 = load i32, ptr %6, align 4, !tbaa !36
  %8 = icmp eq i32 %1, %7
  br i1 %8, label %9, label %3

9:                                                ; preds = %4
  tail call void @llvm.memcpy.p0.p0.i64(ptr noundef nonnull align 8 dereferenceable(24) %0, ptr noundef nonnull align 8 dereferenceable(24) %5, i64 24, i1 false), !tbaa.struct !27
  br label %12

10:                                               ; preds = %3
  store i32 0, ptr %0, align 8, !tbaa !18
  %11 = getelementptr inbounds nuw i8, ptr %0, i64 4
  store i32 %1, ptr %11, align 4, !tbaa !20
  br label %12

12:                                               ; preds = %10, %9
  ret void
}